target datalayout = "e-m:e-p270:32:32-p271:32:32-p272:64:64-i64:64-i128:128-f80:128-n8:16:32:64-S128"
target triple = "x86_64-pc-linux-gnu"

%struct.__ncnn_allocator_t = type { ptr, ptr, ptr }
%"class.ncnn::Mat" = type { ptr, ptr, i64, i32, ptr, i32, i32, i32, i32, i32, i64 }

; Function Attrs: mustprogress uwtable
define hidden ptr @ncnn_mat_create_4d(i32 noundef %0, i32 noundef %1, i32 noundef %2, i32 noundef %3, ptr noundef %4) #1 personality ptr @__gxx_personality_v0 {
  %6 = alloca ptr, align 8
  %7 = alloca i32, align 4
  %8 = alloca i32, align 4
  %9 = alloca i32, align 4
  %10 = alloca i32, align 4
  %11 = alloca i64, align 8
  %12 = alloca ptr, align 8
  %13 = alloca i32, align 4
  %14 = alloca i32, align 4
  %15 = alloca i32, align 4
  %16 = alloca i32, align 4
  %17 = alloca ptr, align 8
  %18 = alloca ptr, align 8
  %19 = alloca i32, align 4
  store i32 %0, ptr %13, align 4
  store i32 %1, ptr %14, align 4
  store i32 %2, ptr %15, align 4
  store i32 %3, ptr %16, align 4
  store ptr %4, ptr %17, align 8
  %20 = call noalias noundef nonnull ptr @_Znwm(i64 noundef 72) #13
  %21 = load i32, ptr %13, align 4
  %22 = load i32, ptr %14, align 4
  %23 = load i32, ptr %15, align 4
  %24 = load i32, ptr %16, align 4
  %25 = load ptr, ptr %17, align 8
  %26 = icmp ne ptr %25, null
  br i1 %26, label %27, label %31

27:                                               ; preds = %5
  %28 = load ptr, ptr %17, align 8
  %29 = getelementptr inbounds nuw %struct.__ncnn_allocator_t, ptr %28, i32 0, i32 0
  %30 = load ptr, ptr %29, align 8
  br label %32

31:                                               ; preds = %5
  br label %32

32:                                               ; preds = %31, %27
  %33 = phi ptr [ %30, %27 ], [ null, %31 ]
  store ptr %20, ptr %6, align 8
  store i32 %21, ptr %7, align 4
  store i32 %22, ptr %8, align 4
  store i32 %23, ptr %9, align 4
  store i32 %24, ptr %10, align 4
  store i64 4, ptr %11, align 8
  store ptr %33, ptr %12, align 8
  %34 = load ptr, ptr %6, align 8
  store ptr null, ptr %34, align 8
  %35 = getelementptr inbounds nuw %"class.ncnn::Mat", ptr %34, i32 0, i32 1
  store ptr null, ptr %35, align 8
  %36 = getelementptr inbounds nuw %"class.ncnn::Mat", ptr %34, i32 0, i32 2
  store i64 0, ptr %36, align 8
  %37 = getelementptr inbounds nuw %"class.ncnn::Mat", ptr %34, i32 0, i32 3
  store i32 0, ptr %37, align 8
  %38 = getelementptr inbounds nuw %"class.ncnn::Mat", ptr %34, i32 0, i32 4
  store ptr null, ptr %38, align 8
  %39 = getelementptr inbounds nuw %"class.ncnn::Mat", ptr %34, i32 0, i32 5
  store i32 0, ptr %39, align 8
  %40 = getelementptr inbounds nuw %"class.ncnn::Mat", ptr %34, i32 0, i32 6
  store i32 0, ptr %40, align 4
  %41 = getelementptr inbounds nuw %"class.ncnn::Mat", ptr %34, i32 0, i32 7
  store i32 0, ptr %41, align 8
  %42 = getelementptr inbounds nuw %"class.ncnn::Mat", ptr %34, i32 0, i32 8
  store i32 0, ptr %42, align 4
  %43 = getelementptr inbounds nuw %"class.ncnn::Mat", ptr %34, i32 0, i32 9
  store i32 0, ptr %43, align 8
  %44 = getelementptr inbounds nuw %"class.ncnn::Mat", ptr %34, i32 0, i32 10
  store i64 0, ptr %44, align 8
  %45 = load i32, ptr %7, align 4
  %46 = load i32, ptr %8, align 4
  %47 = load i32, ptr %9, align 4
  %48 = load i32, ptr %10, align 4
  %49 = load i64, ptr %11, align 8
  %50 = load ptr, ptr %12, align 8
  invoke void @_ZN4ncnn3Mat6createEiiiimPNS_9AllocatorE(ptr noundef nonnull align 8 dereferenceable(72) %34, i32 noundef %45, i32 noundef %46, i32 noundef %47, i32 noundef %48, i64 noundef %49, ptr noundef %50)
          to label %51 unwind label %53

51:                                               ; preds = %32
  br label %52

52:                                               ; preds = %51
  ret ptr %20

53:                                               ; preds = %32
  %54 = landingpad { ptr, i32 }
          cleanup
  %55 = extractvalue { ptr, i32 } %54, 0
  store ptr %55, ptr %18, align 8
  %56 = extractvalue { ptr, i32 } %54, 1
  store i32 %56, ptr %19, align 4
  call void @_ZdlPvm(ptr noundef %20, i64 noundef 72) #14
  br label %57

57:                                               ; preds = %53
  %58 = load ptr, ptr %18, align 8
  %59 = load i32, ptr %19, align 4
  %60 = insertvalue { ptr, i32 } poison, ptr %58, 0
  %61 = insertvalue { ptr, i32 } %60, i32 %59, 1
  resume { ptr, i32 } %61
}