; Function Attrs: mustprogress uwtable
define hidden noundef nonnull ptr @ncnn_mat_create_4d(i32 noundef %0, i32 noundef %1, i32 noundef %2, i32 noundef %3, ptr noundef readonly %4) local_unnamed_addr #1 personality ptr @__gxx_personality_v0 {
  %6 = tail call noalias noundef nonnull dereferenceable(72) ptr @_Znwm(i64 noundef 72) #24
  %.not = icmp eq ptr %4, null
  br i1 %.not, label %9, label %7

7:                                                ; preds = %5
  %8 = load ptr, ptr %4, align 8
  br label %9

9:                                                ; preds = %5, %7
  %10 = phi ptr [ %8, %7 ], [ null, %5 ]
  %11 = getelementptr inbounds nuw i8, ptr %6, i64 32
  %12 = getelementptr inbounds nuw i8, ptr %6, i64 64
  store i64 0, ptr %12, align 8
  tail call void @llvm.memset.p0.i64(ptr noundef nonnull align 8 dereferenceable(28) %6, i8 0, i64 28, i1 false)
  tail call void @llvm.memset.p0.i64(ptr noundef nonnull align 8 dereferenceable(28) %11, i8 0, i64 28, i1 false)
  invoke void @_ZN4ncnn3Mat6createEiiiimPNS_9AllocatorE(ptr noundef nonnull align 8 dereferenceable(72) %6, i32 noundef %0, i32 noundef %1, i32 noundef %2, i32 noundef %3, i64 noundef 4, ptr noundef %10)
          to label %13 unwind label %14

13:                                               ; preds = %9
  ret ptr %6

14:                                               ; preds = %9
  %15 = landingpad { ptr, i32 }
          cleanup
  tail call void @_ZdlPvm(ptr noundef nonnull %6, i64 noundef 72) #25
  resume { ptr, i32 } %15
}